target datalayout = "e-m:e-p270:32:32-p271:32:32-p272:64:64-i64:64-i128:128-f80:128-n8:16:32:64-S128"
target triple = "x86_64-unknown-linux-gnu"

%"class.Imf_3_2::SampleCountChannel" = type { %"class.Imf_3_2::ImageChannel", ptr, ptr, ptr, ptr, i64, i64, i64 }
%"class.Imf_3_2::ImageChannel" = type { ptr, ptr, i32, i32, i8, i32, i32, i64 }
%"class.Imath_3_2::Box" = type { %"class.Imath_3_2::Vec2", %"class.Imath_3_2::Vec2" }
%"class.Imath_3_2::Vec2" = type { i32, i32 }
%"class.Imf_3_2::ImageLevel" = type { ptr, ptr, i32, i32, %"class.Imath_3_2::Box" }

; Function Attrs: mustprogress nounwind uwtable
define linkonce_odr hidden noundef i32 @_ZNK7Imf_3_212ImageChannel12pixelsPerRowEv(ptr noundef nonnull align 8 dereferenceable(48) %this) #5 comdat align 2 {
entry:
  %this.addr = alloca ptr, align 8
  store ptr %this, ptr %this.addr, align 8
  %this1 = load ptr, ptr %this.addr, align 8
  %_pixelsPerRow = getelementptr inbounds %"class.Imf_3_2::ImageChannel", ptr %this1, i32 0, i32 5
  %0 = load i32, ptr %_pixelsPerRow, align 4
  ret i32 %0
}

; Function Attrs: mustprogress nounwind uwtable
define linkonce_odr hidden noundef nonnull align 4 dereferenceable(16) ptr @_ZNK7Imf_3_210ImageLevel10dataWindowEv(ptr noundef nonnull align 8 dereferenceable(40) %this) #5 comdat align 2 {
entry:
  %this.addr = alloca ptr, align 8
  store ptr %this, ptr %this.addr, align 8
  %this1 = load ptr, ptr %this.addr, align 8
  %_dataWindow = getelementptr inbounds %"class.Imf_3_2::ImageLevel", ptr %this1, i32 0, i32 4
  ret ptr %_dataWindow
}

; Function Attrs: mustprogress nounwind uwtable
define linkonce_odr hidden noundef nonnull align 8 dereferenceable(40) ptr @_ZN7Imf_3_212ImageChannel5levelEv(ptr noundef nonnull align 8 dereferenceable(48) %this) #5 comdat align 2 {
entry:
  %this.addr = alloca ptr, align 8
  store ptr %this, ptr %this.addr, align 8
  %this1 = load ptr, ptr %this.addr, align 8
  %_level = getelementptr inbounds %"class.Imf_3_2::ImageChannel", ptr %this1, i32 0, i32 1
  %0 = load ptr, ptr %_level, align 8
  ret ptr %0
}

; Function Attrs: mustprogress nounwind uwtable
define internal noundef i64 @_ZN7Imf_3_212_GLOBAL__N_117roundBufferSizeUpEm(i64 noundef %n) #5 {
entry:
  %n.addr = alloca i64, align 8
  store i64 %n, ptr %n.addr, align 8
  %0 = load i64, ptr %n.addr, align 8
  %1 = load i64, ptr %n.addr, align 8
  %div = udiv i64 %1, 2
  %add = add i64 %0, %div
  ret i64 %add
}

; Function Attrs: mustprogress uwtable
define void @_ZN7Imf_3_218SampleCountChannel16resetBasePointerEv(ptr noundef nonnull align 8 dereferenceable(104) %this) #4 align 2 {
entry:
  %this.addr = alloca ptr, align 8
  store ptr %this, ptr %this.addr, align 8
  %this1 = load ptr, ptr %this.addr, align 8
  %_numSamples = getelementptr inbounds %"class.Imf_3_2::SampleCountChannel", ptr %this1, i32 0, i32 1
  %0 = load ptr, ptr %_numSamples, align 8
  %call = call noundef nonnull align 8 dereferenceable(40) ptr @_ZN7Imf_3_212ImageChannel5levelEv(ptr noundef nonnull align 8 dereferenceable(48) %this1)
  %call2 = call noundef nonnull align 4 dereferenceable(16) ptr @_ZNK7Imf_3_210ImageLevel10dataWindowEv(ptr noundef nonnull align 8 dereferenceable(40) %call)
  %min = getelementptr inbounds %"class.Imath_3_2::Box", ptr %call2, i32 0, i32 0
  %y = getelementptr inbounds %"class.Imath_3_2::Vec2", ptr %min, i32 0, i32 1
  %1 = load i32, ptr %y, align 4
  %call3 = call noundef i32 @_ZNK7Imf_3_212ImageChannel12pixelsPerRowEv(ptr noundef nonnull align 8 dereferenceable(48) %this1)
  %mul = mul nsw i32 %1, %call3
  %idx.ext = sext i32 %mul to i64
  %idx.neg = sub i64 0, %idx.ext
  %add.ptr = getelementptr inbounds i32, ptr %0, i64 %idx.neg
  %call4 = call noundef nonnull align 8 dereferenceable(40) ptr @_ZN7Imf_3_212ImageChannel5levelEv(ptr noundef nonnull align 8 dereferenceable(48) %this1)
  %call5 = call noundef nonnull align 4 dereferenceable(16) ptr @_ZNK7Imf_3_210ImageLevel10dataWindowEv(ptr noundef nonnull align 8 dereferenceable(40) %call4)
  %min6 = getelementptr inbounds %"class.Imath_3_2::Box", ptr %call5, i32 0, i32 0
  %x = getelementptr inbounds %"class.Imath_3_2::Vec2", ptr %min6, i32 0, i32 0
  %2 = load i32, ptr %x, align 4
  %idx.ext7 = sext i32 %2 to i64
  %idx.neg8 = sub i64 0, %idx.ext7
  %add.ptr9 = getelementptr inbounds i32, ptr %add.ptr, i64 %idx.neg8
  %_base = getelementptr inbounds %"class.Imf_3_2::SampleCountChannel", ptr %this1, i32 0, i32 2
  store ptr %add.ptr9, ptr %_base, align 8
  ret void
}

; Function Attrs: mustprogress nounwind uwtable
define linkonce_odr hidden noundef i64 @_ZNK7Imf_3_212ImageChannel9numPixelsEv(ptr noundef nonnull align 8 dereferenceable(48) %this) #5 comdat align 2 {
entry:
  %this.addr = alloca ptr, align 8
  store ptr %this, ptr %this.addr, align 8
  %this1 = load ptr, ptr %this.addr, align 8
  %_numPixels = getelementptr inbounds %"class.Imf_3_2::ImageChannel", ptr %this1, i32 0, i32 7
  %0 = load i64, ptr %_numPixels, align 8
  ret i64 %0
}

; Function Attrs: mustprogress uwtable
define void @_ZN7Imf_3_218SampleCountChannel6resizeEv(ptr noundef nonnull align 8 dereferenceable(104) %this) unnamed_addr #4 align 2 {
entry:
  %this.addr = alloca ptr, align 8
  %i = alloca i64, align 8
  store ptr %this, ptr %this.addr, align 8
  %this1 = load ptr, ptr %this.addr, align 8
  call void @_ZN7Imf_3_212ImageChannel6resizeEv(ptr noundef nonnull align 8 dereferenceable(48) %this1)
  %_numSamples = getelementptr inbounds %"class.Imf_3_2::SampleCountChannel", ptr %this1, i32 0, i32 1
  %0 = load ptr, ptr %_numSamples, align 8
  %isnull = icmp eq ptr %0, null
  br i1 %isnull, label %delete.end, label %delete.notnull

delete.notnull:                                   ; preds = %entry
  call void @_ZdaPv(ptr noundef %0) #10
  br label %delete.end

delete.end:                                       ; preds = %delete.notnull, %entry
  %_sampleListSizes = getelementptr inbounds %"class.Imf_3_2::SampleCountChannel", ptr %this1, i32 0, i32 3
  %1 = load ptr, ptr %_sampleListSizes, align 8
  %isnull2 = icmp eq ptr %1, null
  br i1 %isnull2, label %delete.end4, label %delete.notnull3

delete.notnull3:                                  ; preds = %delete.end
  call void @_ZdaPv(ptr noundef %1) #10
  br label %delete.end4

delete.end4:                                      ; preds = %delete.notnull3, %delete.end
  %_sampleListPositions = getelementptr inbounds %"class.Imf_3_2::SampleCountChannel", ptr %this1, i32 0, i32 4
  %2 = load ptr, ptr %_sampleListPositions, align 8
  %isnull5 = icmp eq ptr %2, null
  br i1 %isnull5, label %delete.end7, label %delete.notnull6

delete.notnull6:                                  ; preds = %delete.end4
  call void @_ZdaPv(ptr noundef %2) #10
  br label %delete.end7

delete.end7:                                      ; preds = %delete.notnull6, %delete.end4
  %_numSamples8 = getelementptr inbounds %"class.Imf_3_2::SampleCountChannel", ptr %this1, i32 0, i32 1
  store ptr null, ptr %_numSamples8, align 8
  %_sampleListSizes9 = getelementptr inbounds %"class.Imf_3_2::SampleCountChannel", ptr %this1, i32 0, i32 3
  store ptr null, ptr %_sampleListSizes9, align 8
  %_sampleListPositions10 = getelementptr inbounds %"class.Imf_3_2::SampleCountChannel", ptr %this1, i32 0, i32 4
  store ptr null, ptr %_sampleListPositions10, align 8
  %call = call noundef i64 @_ZNK7Imf_3_212ImageChannel9numPixelsEv(ptr noundef nonnull align 8 dereferenceable(48) %this1)
  %3 = call { i64, i1 } @llvm.umul.with.overflow.i64(i64 %call, i64 4)
  %4 = extractvalue { i64, i1 } %3, 1
  %5 = extractvalue { i64, i1 } %3, 0
  %6 = select i1 %4, i64 -1, i64 %5
  %call11 = call noalias noundef nonnull ptr @_Znam(i64 noundef %6) #11
  %_numSamples12 = getelementptr inbounds %"class.Imf_3_2::SampleCountChannel", ptr %this1, i32 0, i32 1
  store ptr %call11, ptr %_numSamples12, align 8
  %call13 = call noundef i64 @_ZNK7Imf_3_212ImageChannel9numPixelsEv(ptr noundef nonnull align 8 dereferenceable(48) %this1)
  %7 = call { i64, i1 } @llvm.umul.with.overflow.i64(i64 %call13, i64 4)
  %8 = extractvalue { i64, i1 } %7, 1
  %9 = extractvalue { i64, i1 } %7, 0
  %10 = select i1 %8, i64 -1, i64 %9
  %call14 = call noalias noundef nonnull ptr @_Znam(i64 noundef %10) #11
  %_sampleListSizes15 = getelementptr inbounds %"class.Imf_3_2::SampleCountChannel", ptr %this1, i32 0, i32 3
  store ptr %call14, ptr %_sampleListSizes15, align 8
  %call16 = call noundef i64 @_ZNK7Imf_3_212ImageChannel9numPixelsEv(ptr noundef nonnull align 8 dereferenceable(48) %this1)
  %11 = call { i64, i1 } @llvm.umul.with.overflow.i64(i64 %call16, i64 8)
  %12 = extractvalue { i64, i1 } %11, 1
  %13 = extractvalue { i64, i1 } %11, 0
  %14 = select i1 %12, i64 -1, i64 %13
  %call17 = call noalias noundef nonnull ptr @_Znam(i64 noundef %14) #11
  %_sampleListPositions18 = getelementptr inbounds %"class.Imf_3_2::SampleCountChannel", ptr %this1, i32 0, i32 4
  store ptr %call17, ptr %_sampleListPositions18, align 8
  call void @_ZN7Imf_3_218SampleCountChannel16resetBasePointerEv(ptr noundef nonnull align 8 dereferenceable(104) %this1)
  store i64 0, ptr %i, align 8
  br label %for.cond

for.cond:                                         ; preds = %for.inc, %delete.end7
  %15 = load i64, ptr %i, align 8
  %call19 = call noundef i64 @_ZNK7Imf_3_212ImageChannel9numPixelsEv(ptr noundef nonnull align 8 dereferenceable(48) %this1)
  %cmp = icmp ult i64 %15, %call19
  br i1 %cmp, label %for.body, label %for.end

for.body:                                         ; preds = %for.cond
  %_numSamples20 = getelementptr inbounds %"class.Imf_3_2::SampleCountChannel", ptr %this1, i32 0, i32 1
  %16 = load ptr, ptr %_numSamples20, align 8
  %17 = load i64, ptr %i, align 8
  %arrayidx = getelementptr inbounds i32, ptr %16, i64 %17
  store i32 0, ptr %arrayidx, align 4
  %_sampleListSizes21 = getelementptr inbounds %"class.Imf_3_2::SampleCountChannel", ptr %this1, i32 0, i32 3
  %18 = load ptr, ptr %_sampleListSizes21, align 8
  %19 = load i64, ptr %i, align 8
  %arrayidx22 = getelementptr inbounds i32, ptr %18, i64 %19
  store i32 0, ptr %arrayidx22, align 4
  %_sampleListPositions23 = getelementptr inbounds %"class.Imf_3_2::SampleCountChannel", ptr %this1, i32 0, i32 4
  %20 = load ptr, ptr %_sampleListPositions23, align 8
  %21 = load i64, ptr %i, align 8
  %arrayidx24 = getelementptr inbounds i64, ptr %20, i64 %21
  store i64 0, ptr %arrayidx24, align 8
  br label %for.inc

for.inc:                                          ; preds = %for.body
  %22 = load i64, ptr %i, align 8
  %inc = add i64 %22, 1
  store i64 %inc, ptr %i, align 8
  br label %for.cond, !llvm.loop !10

for.end:                                          ; preds = %for.cond
  %_totalNumSamples = getelementptr inbounds %"class.Imf_3_2::SampleCountChannel", ptr %this1, i32 0, i32 5
  store i64 0, ptr %_totalNumSamples, align 8
  %_totalSamplesOccupied = getelementptr inbounds %"class.Imf_3_2::SampleCountChannel", ptr %this1, i32 0, i32 6
  store i64 0, ptr %_totalSamplesOccupied, align 8
  %_totalSamplesOccupied25 = getelementptr inbounds %"class.Imf_3_2::SampleCountChannel", ptr %this1, i32 0, i32 6
  %23 = load i64, ptr %_totalSamplesOccupied25, align 8
  %call26 = call noundef i64 @_ZN7Imf_3_212_GLOBAL__N_117roundBufferSizeUpEm(i64 noundef %23)
  %_sampleBufferSize = getelementptr inbounds %"class.Imf_3_2::SampleCountChannel", ptr %this1, i32 0, i32 7
  store i64 %call26, ptr %_sampleBufferSize, align 8
  ret void
}