; Function Attrs: mustprogress uwtable
define void @_ZN7Imf_3_218SampleCountChannel6resizeEv(ptr noundef nonnull align 8 dereferenceable(104) %this) unnamed_addr #3 align 2 {
entry:
  tail call void @_ZN7Imf_3_212ImageChannel6resizeEv(ptr noundef nonnull align 8 dereferenceable(48) %this)
  %_numSamples = getelementptr inbounds i8, ptr %this, i64 48
  %0 = load ptr, ptr %_numSamples, align 8
  %isnull = icmp eq ptr %0, null
  br i1 %isnull, label %delete.end, label %delete.notnull

delete.notnull:                                   ; preds = %entry
  tail call void @_ZdaPv(ptr noundef nonnull %0) #14
  br label %delete.end

delete.end:                                       ; preds = %delete.notnull, %entry
  %_sampleListSizes = getelementptr inbounds i8, ptr %this, i64 64
  %1 = load ptr, ptr %_sampleListSizes, align 8
  %isnull2 = icmp eq ptr %1, null
  br i1 %isnull2, label %delete.end4, label %delete.notnull3

delete.notnull3:                                  ; preds = %delete.end
  tail call void @_ZdaPv(ptr noundef nonnull %1) #14
  br label %delete.end4

delete.end4:                                      ; preds = %delete.notnull3, %delete.end
  %_sampleListPositions = getelementptr inbounds i8, ptr %this, i64 72
  %2 = load ptr, ptr %_sampleListPositions, align 8
  %isnull5 = icmp eq ptr %2, null
  br i1 %isnull5, label %delete.end7, label %delete.notnull6

delete.notnull6:                                  ; preds = %delete.end4
  tail call void @_ZdaPv(ptr noundef nonnull %2) #14
  br label %delete.end7

delete.end7:                                      ; preds = %delete.notnull6, %delete.end4
  store ptr null, ptr %_numSamples, align 8
  %_numPixels.i = getelementptr inbounds i8, ptr %this, i64 40
  tail call void @llvm.memset.p0.i64(ptr noundef nonnull align 8 dereferenceable(16) %_sampleListSizes, i8 0, i64 16, i1 false)
  %3 = load i64, ptr %_numPixels.i, align 8
  %4 = icmp ugt i64 %3, 4611686018427387903
  %5 = shl i64 %3, 2
  %6 = select i1 %4, i64 -1, i64 %5
  %call11 = tail call noalias noundef nonnull ptr @_Znam(i64 noundef %6) #15
  store ptr %call11, ptr %_numSamples, align 8
  %call14 = tail call noalias noundef nonnull ptr @_Znam(i64 noundef %6) #15
  store ptr %call14, ptr %_sampleListSizes, align 8
  %7 = icmp ugt i64 %3, 2305843009213693951
  %8 = shl i64 %3, 3
  %9 = select i1 %7, i64 -1, i64 %8
  %call17 = tail call noalias noundef nonnull ptr @_Znam(i64 noundef %9) #15
  store ptr %call17, ptr %_sampleListPositions, align 8
  %_level.i.i = getelementptr inbounds i8, ptr %this, i64 8
  %10 = load ptr, ptr %_level.i.i, align 8
  %_dataWindow.i.i = getelementptr inbounds i8, ptr %10, i64 24
  %y.i = getelementptr inbounds i8, ptr %10, i64 28
  %11 = load i32, ptr %y.i, align 4
  %_pixelsPerRow.i.i = getelementptr inbounds i8, ptr %this, i64 28
  %12 = load i32, ptr %_pixelsPerRow.i.i, align 4
  %mul.i = mul nsw i32 %12, %11
  %idx.ext.i = sext i32 %mul.i to i64
  %idx.neg.i = sub nsw i64 0, %idx.ext.i
  %add.ptr.i = getelementptr inbounds i32, ptr %call11, i64 %idx.neg.i
  %13 = load i32, ptr %_dataWindow.i.i, align 4
  %idx.ext7.i = sext i32 %13 to i64
  %idx.neg8.i = sub nsw i64 0, %idx.ext7.i
  %add.ptr9.i = getelementptr inbounds i32, ptr %add.ptr.i, i64 %idx.neg8.i
  %_base.i = getelementptr inbounds i8, ptr %this, i64 56
  store ptr %add.ptr9.i, ptr %_base.i, align 8
  %cmp10.not = icmp eq i64 %3, 0
  br i1 %cmp10.not, label %for.end, label %for.body

for.body:                                         ; preds = %delete.end7, %for.body
  %i.011 = phi i64 [ %inc, %for.body ], [ 0, %delete.end7 ]
  %14 = load ptr, ptr %_numSamples, align 8
  %arrayidx = getelementptr inbounds i32, ptr %14, i64 %i.011
  store i32 0, ptr %arrayidx, align 4
  %15 = load ptr, ptr %_sampleListSizes, align 8
  %arrayidx22 = getelementptr inbounds i32, ptr %15, i64 %i.011
  store i32 0, ptr %arrayidx22, align 4
  %16 = load ptr, ptr %_sampleListPositions, align 8
  %arrayidx24 = getelementptr inbounds i64, ptr %16, i64 %i.011
  store i64 0, ptr %arrayidx24, align 8
  %inc = add nuw i64 %i.011, 1
  %17 = load i64, ptr %_numPixels.i, align 8
  %cmp = icmp ult i64 %inc, %17
  br i1 %cmp, label %for.body, label %for.end, !llvm.loop !10

for.end:                                          ; preds = %for.body, %delete.end7
  %_totalNumSamples = getelementptr inbounds i8, ptr %this, i64 80
  tail call void @llvm.memset.p0.i64(ptr noundef nonnull align 8 dereferenceable(24) %_totalNumSamples, i8 0, i64 24, i1 false)
  ret void
}